; Function Attrs: nounwind uwtable
define noalias ptr @EVP_CIPHER_CTX_new() local_unnamed_addr #0 {
  %1 = tail call noalias ptr @CRYPTO_zalloc(i64 noundef 192, ptr noundef nonnull @.str, i32 noundef 76) #10
  %2 = icmp eq ptr %1, null
  br i1 %2, label %5, label %3

3:                                                ; preds = %0
  %4 = getelementptr inbounds nuw i8, ptr %1, i64 108
  store i32 -1, ptr %4, align 4, !tbaa !26
  br label %5

5:                                                ; preds = %0, %3
  ret ptr %1
}